target datalayout = "e-m:e-p270:32:32-p271:32:32-p272:64:64-i64:64-i128:128-f80:128-n8:16:32:64-S128"
target triple = "x86_64-pc-linux-gnu"

%struct.Vmem = type { ptr, i64, i64 }
%struct.ParseContext_ = type { %struct.TokenData, i32, %union.SourceSpan, %union.SourceSpan, ptr, %struct.Lexer }
%struct.TokenData = type { ptr, i64, %union.anon.86 }
%union.anon.86 = type { %struct.anon.89 }
%struct.anon.89 = type { %struct.Int128_, i8 }
%struct.Int128_ = type { i64, i64 }
%union.SourceSpan = type { i64 }
%struct.Lexer = type { ptr, ptr, ptr, ptr, i32, i32, ptr, ptr, ptr, %struct.TokenData, %union.SourceSpan, i32, i32 }
%struct.TypeInfo_ = type { i16, ptr, %union.SourceSpan, %union.anon.57 }
%union.anon.57 = type { %struct.anon.58 }
%struct.anon.58 = type { ptr, ptr }
%struct.Decl_ = type { ptr, ptr, %union.SourceSpan, i64, %union.anon, i32, %union.anon.1, i64, ptr, ptr, ptr, %union.anon.2 }
%union.anon = type { ptr }
%union.anon.1 = type { i16 }
%union.anon.2 = type { %struct.FuncDecl }
%struct.FuncDecl = type { i32, [4 x i8], %struct.Signature_, i32, i32, %union.anon.9 }
%struct.Signature_ = type <{ %struct.CalleeAttributes, i16, i8, i32, i32, [4 x i8], ptr }>
%struct.CalleeAttributes = type { i8 }
%union.anon.9 = type { %struct.anon.10 }
%struct.anon.10 = type { i16, %union.anon.11 }
%union.anon.11 = type { ptr }

@poisoned_type_info = external global ptr, align 8
@type_info_arena = external global %struct.Vmem, align 8
@.str.111 = private unnamed_addr constant [66 x i8] c"This looks like you are declaring a method without a return type?\00", align 1
@.str.112 = private unnamed_addr constant [74 x i8] c"There is unexpectedly a type after the return type, did you forget a '.'?\00", align 1
@.str.113 = private unnamed_addr constant [60 x i8] c"Expected a macro name here, e.g. '@someName' or 'someName'.\00", align 1
@.str.114 = private unnamed_addr constant [48 x i8] c"Expected a function name here, e.g. 'someName'.\00", align 1

; Function Attrs: nounwind uwtable
define internal i32 @type_infoid(ptr noundef %0) #0 {
  %2 = alloca ptr, align 8
  store ptr %0, ptr %2, align 8
  %3 = load ptr, ptr %2, align 8
  %4 = load ptr, ptr @type_info_arena, align 8
  %5 = ptrtoint ptr %3 to i64
  %6 = ptrtoint ptr %4 to i64
  %7 = sub i64 %5, %6
  %8 = sdiv exact i64 %7, 40
  %9 = trunc i64 %8 to i32
  ret i32 %9
}

; Function Attrs: nounwind uwtable
define dso_local ptr @parse_type(ptr noundef %0) #0 {
  %2 = alloca ptr, align 8
  %3 = alloca ptr, align 8
  %4 = alloca ptr, align 8
  %5 = alloca ptr, align 8
  %6 = alloca ptr, align 8
  store ptr %0, ptr %4, align 8
  %7 = load ptr, ptr %4, align 8
  %8 = call ptr @parse_base_type(ptr noundef %7)
  store ptr %8, ptr %5, align 8
  %9 = load ptr, ptr %5, align 8
  store ptr %9, ptr %2, align 8
  %10 = load ptr, ptr %2, align 8
  %11 = icmp ne ptr %10, null
  br i1 %11, label %12, label %19

12:                                               ; preds = %1
  %13 = load ptr, ptr %2, align 8
  %14 = load i16, ptr %13, align 8
  %15 = lshr i16 %14, 3
  %16 = and i16 %15, 63
  %17 = zext i16 %16 to i32
  %18 = icmp ne i32 %17, 0
  br label %19

19:                                               ; preds = %12, %1
  %20 = phi i1 [ true, %1 ], [ %18, %12 ]
  br i1 %20, label %23, label %21

21:                                               ; preds = %19
  %22 = load ptr, ptr @poisoned_type_info, align 8
  store ptr %22, ptr %3, align 8
  br label %28

23:                                               ; preds = %19
  %24 = load ptr, ptr %5, align 8
  store ptr %24, ptr %6, align 8
  %25 = load ptr, ptr %4, align 8
  %26 = load ptr, ptr %6, align 8
  %27 = call ptr @parse_type_with_base(ptr noundef %25, ptr noundef %26)
  store ptr %27, ptr %3, align 8
  br label %28

28:                                               ; preds = %23, %21
  %29 = load ptr, ptr %3, align 8
  ret ptr %29
}

; Function Attrs: nounwind uwtable
define internal zeroext i1 @parse_is_macro_name(ptr noundef %0) #0 {
  %2 = alloca ptr, align 8
  %3 = alloca ptr, align 8
  %4 = alloca i32, align 4
  %5 = alloca ptr, align 8
  %6 = alloca i32, align 4
  %7 = alloca ptr, align 8
  store ptr %0, ptr %7, align 8
  %8 = load ptr, ptr %7, align 8
  store ptr %8, ptr %3, align 8
  store i32 64, ptr %4, align 4
  %9 = load ptr, ptr %3, align 8
  %10 = getelementptr inbounds %struct.ParseContext_, ptr %9, i32 0, i32 1
  %11 = load i32, ptr %10, align 8
  %12 = load i32, ptr %4, align 4
  %13 = icmp eq i32 %11, %12
  br i1 %13, label %14, label %21

14:                                               ; preds = %1
  %15 = load ptr, ptr %7, align 8
  store ptr %15, ptr %2, align 8
  %16 = load ptr, ptr %2, align 8
  %17 = getelementptr inbounds %struct.ParseContext_, ptr %16, i32 0, i32 5
  %18 = getelementptr inbounds %struct.Lexer, ptr %17, i32 0, i32 11
  %19 = load i32, ptr %18, align 8
  %20 = icmp ne i32 %19, 58
  br i1 %20, label %28, label %21

21:                                               ; preds = %14, %1
  %22 = load ptr, ptr %7, align 8
  store ptr %22, ptr %5, align 8
  store i32 73, ptr %6, align 4
  %23 = load ptr, ptr %5, align 8
  %24 = getelementptr inbounds %struct.ParseContext_, ptr %23, i32 0, i32 1
  %25 = load i32, ptr %24, align 8
  %26 = load i32, ptr %6, align 4
  %27 = icmp eq i32 %25, %26
  br label %28

28:                                               ; preds = %21, %14
  %29 = phi i1 [ true, %14 ], [ %27, %21 ]
  ret i1 %29
}

; Function Attrs: nounwind uwtable
define internal zeroext i1 @parse_func_macro_header(ptr noundef %0, ptr noundef %1) #0 {
  %3 = alloca ptr, align 8
  %4 = alloca ptr, align 8
  %5 = alloca ptr, align 8
  %6 = alloca ptr, align 8
  %7 = alloca i32, align 4
  %8 = alloca i1, align 1
  %9 = alloca ptr, align 8
  %10 = alloca ptr, align 8
  %11 = alloca ptr, align 8
  %12 = alloca ptr, align 8
  %13 = alloca i8, align 1
  %14 = alloca ptr, align 8
  %15 = alloca ptr, align 8
  store ptr %0, ptr %9, align 8
  store ptr %1, ptr %10, align 8
  store ptr null, ptr %11, align 8
  store ptr null, ptr %12, align 8
  %16 = load ptr, ptr %10, align 8
  %17 = getelementptr inbounds %struct.Decl_, ptr %16, i32 0, i32 3
  %18 = load i64, ptr %17, align 8
  %19 = and i64 %18, 127
  %20 = trunc i64 %19 to i32
  %21 = icmp eq i32 %20, 21
  %22 = zext i1 %21 to i8
  store i8 %22, ptr %13, align 1
  %23 = load i8, ptr %13, align 1
  %24 = trunc i8 %23 to i1
  br i1 %24, label %25, label %29

25:                                               ; preds = %2
  %26 = load ptr, ptr %9, align 8
  %27 = call zeroext i1 @parse_is_macro_name(ptr noundef %26)
  br i1 %27, label %28, label %29

28:                                               ; preds = %25
  br label %107

29:                                               ; preds = %25, %2
  %30 = load ptr, ptr %9, align 8
  %31 = call ptr @parse_optional_type(ptr noundef %30)
  store ptr %31, ptr %14, align 8
  %32 = load ptr, ptr %14, align 8
  store ptr %32, ptr %3, align 8
  %33 = load ptr, ptr %3, align 8
  %34 = icmp ne ptr %33, null
  br i1 %34, label %35, label %42

35:                                               ; preds = %29
  %36 = load ptr, ptr %3, align 8
  %37 = load i16, ptr %36, align 8
  %38 = lshr i16 %37, 3
  %39 = and i16 %38, 63
  %40 = zext i16 %39 to i32
  %41 = icmp ne i32 %40, 0
  br label %42

42:                                               ; preds = %35, %29
  %43 = phi i1 [ true, %29 ], [ %41, %35 ]
  br i1 %43, label %45, label %44

44:                                               ; preds = %42
  store i1 false, ptr %8, align 1
  br label %200

45:                                               ; preds = %42
  %46 = load ptr, ptr %14, align 8
  store ptr %46, ptr %11, align 8
  %47 = load ptr, ptr %9, align 8
  store ptr %47, ptr %6, align 8
  store i32 14, ptr %7, align 4
  %48 = load ptr, ptr %6, align 8
  %49 = getelementptr inbounds %struct.ParseContext_, ptr %48, i32 0, i32 1
  %50 = load i32, ptr %49, align 8
  %51 = load i32, ptr %7, align 4
  %52 = icmp eq i32 %50, %51
  br i1 %52, label %74, label %53

53:                                               ; preds = %45
  %54 = load ptr, ptr %9, align 8
  %55 = call zeroext i1 @parse_is_macro_name(ptr noundef %54)
  br i1 %55, label %74, label %56

56:                                               ; preds = %53
  %57 = load ptr, ptr %9, align 8
  %58 = call ptr @parse_type(ptr noundef %57)
  store ptr %58, ptr %15, align 8
  %59 = load ptr, ptr %15, align 8
  store ptr %59, ptr %4, align 8
  %60 = load ptr, ptr %4, align 8
  %61 = icmp ne ptr %60, null
  br i1 %61, label %62, label %69

62:                                               ; preds = %56
  %63 = load ptr, ptr %4, align 8
  %64 = load i16, ptr %63, align 8
  %65 = lshr i16 %64, 3
  %66 = and i16 %65, 63
  %67 = zext i16 %66 to i32
  %68 = icmp ne i32 %67, 0
  br label %69

69:                                               ; preds = %62, %56
  %70 = phi i1 [ true, %56 ], [ %68, %62 ]
  br i1 %70, label %72, label %71

71:                                               ; preds = %69
  store i1 false, ptr %8, align 1
  br label %200

72:                                               ; preds = %69
  %73 = load ptr, ptr %15, align 8
  store ptr %73, ptr %12, align 8
  br label %74

74:                                               ; preds = %72, %53, %45
  %75 = load ptr, ptr %9, align 8
  %76 = call zeroext i1 @try_consume(ptr noundef %75, i32 noundef 14)
  br i1 %76, label %77, label %97

77:                                               ; preds = %74
  %78 = load ptr, ptr %12, align 8
  %79 = icmp ne ptr %78, null
  br i1 %79, label %96, label %80

80:                                               ; preds = %77
  %81 = load i8, ptr %13, align 1
  %82 = trunc i8 %81 to i1
  br i1 %82, label %83, label %89

83:                                               ; preds = %80
  %84 = load ptr, ptr %11, align 8
  %85 = load i16, ptr %84, align 8
  %86 = lshr i16 %85, 9
  %87 = and i16 %86, 1
  %88 = trunc i16 %87 to i1
  br i1 %88, label %89, label %94

89:                                               ; preds = %83, %80
  %90 = load ptr, ptr %9, align 8
  %91 = getelementptr inbounds %struct.ParseContext_, ptr %90, i32 0, i32 3
  %92 = getelementptr inbounds %union.SourceSpan, ptr %91, i32 0, i32 0
  %93 = load i64, ptr %92, align 8
  call void (i64, ptr, ...) @sema_error_at(i64 %93, ptr noundef @.str.111)
  store i1 false, ptr %8, align 1
  br label %200

94:                                               ; preds = %83
  %95 = load ptr, ptr %11, align 8
  store ptr %95, ptr %12, align 8
  store ptr null, ptr %11, align 8
  br label %96

96:                                               ; preds = %94, %77
  br label %106

97:                                               ; preds = %74
  %98 = load ptr, ptr %12, align 8
  %99 = icmp ne ptr %98, null
  br i1 %99, label %100, label %105

100:                                              ; preds = %97
  %101 = load ptr, ptr %12, align 8
  %102 = getelementptr inbounds %struct.TypeInfo_, ptr %101, i32 0, i32 2
  %103 = getelementptr inbounds %union.SourceSpan, ptr %102, i32 0, i32 0
  %104 = load i64, ptr %103, align 8
  call void (i64, ptr, ...) @sema_error_at(i64 %104, ptr noundef @.str.112)
  store i1 false, ptr %8, align 1
  br label %200

105:                                              ; preds = %97
  br label %106

106:                                              ; preds = %105, %96
  br label %107

107:                                              ; preds = %106, %28
  %108 = load ptr, ptr %9, align 8
  store ptr %108, ptr %5, align 8
  %109 = load ptr, ptr %5, align 8
  %110 = getelementptr inbounds %struct.TokenData, ptr %109, i32 0, i32 2
  %111 = load ptr, ptr %110, align 8
  %112 = load ptr, ptr %10, align 8
  %113 = getelementptr inbounds %struct.Decl_, ptr %112, i32 0, i32 0
  store ptr %111, ptr %113, align 8
  %114 = load ptr, ptr %10, align 8
  %115 = getelementptr inbounds %struct.Decl_, ptr %114, i32 0, i32 2
  %116 = load ptr, ptr %9, align 8
  %117 = getelementptr inbounds %struct.ParseContext_, ptr %116, i32 0, i32 2
  call void @llvm.memcpy.p0.p0.i64(ptr align 8 %115, ptr align 8 %117, i64 8, i1 false)
  %118 = load i8, ptr %13, align 1
  %119 = trunc i8 %118 to i1
  br i1 %119, label %120, label %135

120:                                              ; preds = %107
  %121 = load ptr, ptr %9, align 8
  %122 = getelementptr inbounds %struct.ParseContext_, ptr %121, i32 0, i32 1
  %123 = load i32, ptr %122, align 8
  %124 = icmp ne i32 %123, 64
  br i1 %124, label %125, label %135

125:                                              ; preds = %120
  %126 = load ptr, ptr %9, align 8
  %127 = getelementptr inbounds %struct.ParseContext_, ptr %126, i32 0, i32 1
  %128 = load i32, ptr %127, align 8
  %129 = icmp ne i32 %128, 73
  br i1 %129, label %130, label %135

130:                                              ; preds = %125
  %131 = load ptr, ptr %9, align 8
  %132 = getelementptr inbounds %struct.ParseContext_, ptr %131, i32 0, i32 2
  %133 = getelementptr inbounds %union.SourceSpan, ptr %132, i32 0, i32 0
  %134 = load i64, ptr %133, align 8
  call void (i64, ptr, ...) @sema_error_at(i64 %134, ptr noundef @.str.113)
  store i1 false, ptr %8, align 1
  br label %200

135:                                              ; preds = %125, %120, %107
  %136 = load i8, ptr %13, align 1
  %137 = trunc i8 %136 to i1
  br i1 %137, label %148, label %138

138:                                              ; preds = %135
  %139 = load ptr, ptr %9, align 8
  %140 = getelementptr inbounds %struct.ParseContext_, ptr %139, i32 0, i32 1
  %141 = load i32, ptr %140, align 8
  %142 = icmp ne i32 %141, 64
  br i1 %142, label %143, label %148

143:                                              ; preds = %138
  %144 = load ptr, ptr %9, align 8
  %145 = getelementptr inbounds %struct.ParseContext_, ptr %144, i32 0, i32 2
  %146 = getelementptr inbounds %union.SourceSpan, ptr %145, i32 0, i32 0
  %147 = load i64, ptr %146, align 8
  call void (i64, ptr, ...) @sema_error_at(i64 %147, ptr noundef @.str.114)
  store i1 false, ptr %8, align 1
  br label %200

148:                                              ; preds = %138, %135
  br label %149

149:                                              ; preds = %148
  %150 = load ptr, ptr %9, align 8
  call void @advance(ptr noundef %150)
  %151 = load ptr, ptr %11, align 8
  %152 = icmp ne ptr %151, null
  br i1 %152, label %153, label %156

153:                                              ; preds = %149
  %154 = load ptr, ptr %11, align 8
  %155 = call i32 @type_infoid(ptr noundef %154)
  br label %157

156:                                              ; preds = %149
  br label %157

157:                                              ; preds = %156, %153
  %158 = phi i32 [ %155, %153 ], [ 0, %156 ]
  %159 = load ptr, ptr %10, align 8
  %160 = getelementptr inbounds %struct.Decl_, ptr %159, i32 0, i32 11
  %161 = getelementptr inbounds %struct.FuncDecl, ptr %160, i32 0, i32 2
  %162 = getelementptr inbounds %struct.Signature_, ptr %161, i32 0, i32 4
  store i32 %158, ptr %162, align 8
  %163 = load i8, ptr %13, align 1
  %164 = trunc i8 %163 to i1
  %165 = load ptr, ptr %10, align 8
  %166 = getelementptr inbounds %struct.Decl_, ptr %165, i32 0, i32 11
  %167 = getelementptr inbounds %struct.FuncDecl, ptr %166, i32 0, i32 2
  %168 = getelementptr inbounds %struct.Signature_, ptr %167, i32 0, i32 1
  %169 = zext i1 %164 to i16
  %170 = load i16, ptr %168, align 1
  %171 = and i16 %170, -2
  %172 = or i16 %171, %169
  store i16 %172, ptr %168, align 1
  %173 = load ptr, ptr %10, align 8
  %174 = getelementptr inbounds %struct.Decl_, ptr %173, i32 0, i32 0
  %175 = load ptr, ptr %174, align 8
  %176 = getelementptr inbounds i8, ptr %175, i64 0
  %177 = load i8, ptr %176, align 1
  %178 = sext i8 %177 to i32
  %179 = icmp eq i32 %178, 64
  %180 = load ptr, ptr %10, align 8
  %181 = getelementptr inbounds %struct.Decl_, ptr %180, i32 0, i32 11
  %182 = getelementptr inbounds %struct.FuncDecl, ptr %181, i32 0, i32 2
  %183 = getelementptr inbounds %struct.Signature_, ptr %182, i32 0, i32 1
  %184 = zext i1 %179 to i16
  %185 = load i16, ptr %183, align 1
  %186 = shl i16 %184, 1
  %187 = and i16 %185, -3
  %188 = or i16 %187, %186
  store i16 %188, ptr %183, align 1
  %189 = load ptr, ptr %12, align 8
  %190 = icmp ne ptr %189, null
  br i1 %190, label %191, label %194

191:                                              ; preds = %157
  %192 = load ptr, ptr %12, align 8
  %193 = call i32 @type_infoid(ptr noundef %192)
  br label %195

194:                                              ; preds = %157
  br label %195

195:                                              ; preds = %194, %191
  %196 = phi i32 [ %193, %191 ], [ 0, %194 ]
  %197 = load ptr, ptr %10, align 8
  %198 = getelementptr inbounds %struct.Decl_, ptr %197, i32 0, i32 11
  %199 = getelementptr inbounds %struct.FuncDecl, ptr %198, i32 0, i32 0
  store i32 %196, ptr %199, align 8
  store i1 true, ptr %8, align 1
  br label %200

200:                                              ; preds = %195, %143, %130, %100, %89, %71, %44
  %201 = load i1, ptr %8, align 1
  ret i1 %201
}