; Function Attrs: nounwind uwtable
define internal fastcc noundef zeroext i1 @parse_func_macro_header(ptr noundef %0, ptr nocapture noundef %1) unnamed_addr #0 {
  %3 = getelementptr inbounds i8, ptr %1, i64 24
  %4 = load i64, ptr %3, align 8
  %5 = and i64 %4, 127
  %6 = icmp eq i64 %5, 21
  br i1 %6, label %7, label %parse_is_macro_name.exit.thread71

7:                                                ; preds = %2
  %8 = getelementptr inbounds i8, ptr %0, i64 40
  %9 = load i32, ptr %8, align 8
  switch i32 %9, label %parse_is_macro_name.exit.thread71 [
    i32 64, label %10
    i32 73, label %.thread
  ]

10:                                               ; preds = %7
  %11 = getelementptr inbounds i8, ptr %0, i64 184
  %12 = load i32, ptr %11, align 8
  %.not.i = icmp eq i32 %12, 58
  br i1 %.not.i, label %parse_is_macro_name.exit.thread71, label %.thread

parse_is_macro_name.exit.thread71:                ; preds = %7, %10, %2
  %13 = tail call ptr @parse_optional_type(ptr noundef %0)
  %.not = icmp eq ptr %13, null
  br i1 %.not, label %.critedge, label %14

14:                                               ; preds = %parse_is_macro_name.exit.thread71
  %15 = load i16, ptr %13, align 8
  %16 = and i16 %15, 504
  %.not55 = icmp eq i16 %16, 0
  br i1 %.not55, label %96, label %.critedge

.critedge:                                        ; preds = %parse_is_macro_name.exit.thread71, %14
  %17 = getelementptr inbounds i8, ptr %0, i64 40
  %18 = load i32, ptr %17, align 8
  switch i32 %18, label %parse_is_macro_name.exit69.thread72 [
    i32 14, label %.critedge2
    i32 64, label %19
    i32 73, label %.critedge2
  ]

19:                                               ; preds = %.critedge
  %20 = getelementptr inbounds i8, ptr %0, i64 184
  %21 = load i32, ptr %20, align 8
  %.not.i68 = icmp eq i32 %21, 58
  br i1 %.not.i68, label %parse_is_macro_name.exit69.thread72, label %.critedge2

parse_is_macro_name.exit69.thread72:              ; preds = %.critedge, %19
  %22 = tail call fastcc ptr @parse_base_type(ptr noundef nonnull %0)
  %.not.i70 = icmp eq ptr %22, null
  br i1 %.not.i70, label %.split8.i, label %24

.split8.i:                                        ; preds = %parse_is_macro_name.exit69.thread72
  %23 = tail call ptr @parse_type_with_base(ptr noundef nonnull %0, ptr noundef null)
  br label %parse_type.exit

24:                                               ; preds = %parse_is_macro_name.exit69.thread72
  %25 = load i16, ptr %22, align 8
  %26 = and i16 %25, 504
  %.not10.i = icmp eq i16 %26, 0
  br i1 %.not10.i, label %28, label %.split.i

.split.i:                                         ; preds = %24
  %27 = tail call ptr @parse_type_with_base(ptr noundef nonnull %0, ptr noundef nonnull %22)
  br label %parse_type.exit

28:                                               ; preds = %24
  %29 = load ptr, ptr @poisoned_type_info, align 8
  br label %parse_type.exit

parse_type.exit:                                  ; preds = %.split8.i, %.split.i, %28
  %.0.i = phi ptr [ %29, %28 ], [ %27, %.split.i ], [ %23, %.split8.i ]
  %.not56 = icmp eq ptr %.0.i, null
  br i1 %.not56, label %.critedge2, label %30

30:                                               ; preds = %parse_type.exit
  %31 = load i16, ptr %.0.i, align 8
  %32 = and i16 %31, 504
  %.not57 = icmp eq i16 %32, 0
  br i1 %.not57, label %96, label %.critedge2

.critedge2:                                       ; preds = %.critedge, %.critedge, %19, %30, %parse_type.exit
  %.051 = phi ptr [ null, %.critedge ], [ null, %parse_type.exit ], [ %.0.i, %30 ], [ null, %19 ], [ null, %.critedge ]
  %33 = tail call zeroext i1 @try_consume(ptr noundef nonnull %0, i32 noundef 14) #8
  %.not59 = icmp eq ptr %.051, null
  br i1 %33, label %34, label %42

34:                                               ; preds = %.critedge2
  br i1 %.not59, label %35, label %51

35:                                               ; preds = %34
  br i1 %6, label %36, label %39

36:                                               ; preds = %35
  %37 = load i16, ptr %13, align 8
  %38 = and i16 %37, 512
  %.not60 = icmp eq i16 %38, 0
  br i1 %.not60, label %.thread, label %39

39:                                               ; preds = %36, %35
  %40 = getelementptr inbounds i8, ptr %0, i64 56
  %41 = load i64, ptr %40, align 8
  tail call void (i64, ptr, ...) @sema_error_at(i64 %41, ptr noundef nonnull @.str.111) #8
  br label %96

42:                                               ; preds = %.critedge2
  br i1 %.not59, label %51, label %43

43:                                               ; preds = %42
  %44 = getelementptr inbounds i8, ptr %.051, i64 16
  %45 = load i64, ptr %44, align 8
  tail call void (i64, ptr, ...) @sema_error_at(i64 %45, ptr noundef nonnull @.str.112) #8
  br label %96

.thread:                                          ; preds = %7, %36, %10
  %.1.ph = phi ptr [ %13, %36 ], [ null, %10 ], [ null, %7 ]
  %46 = getelementptr inbounds i8, ptr %0, i64 16
  %47 = load ptr, ptr %46, align 8
  store ptr %47, ptr %1, align 8
  %48 = getelementptr inbounds i8, ptr %1, i64 16
  %49 = getelementptr inbounds i8, ptr %0, i64 48
  %50 = load i64, ptr %49, align 8
  store i64 %50, ptr %48, align 8
  br label %57

51:                                               ; preds = %34, %42
  %52 = getelementptr inbounds i8, ptr %0, i64 16
  %53 = load ptr, ptr %52, align 8
  store ptr %53, ptr %1, align 8
  %54 = getelementptr inbounds i8, ptr %1, i64 16
  %55 = getelementptr inbounds i8, ptr %0, i64 48
  %56 = load i64, ptr %55, align 8
  store i64 %56, ptr %54, align 8
  br i1 %6, label %57, label %.critedge67

57:                                               ; preds = %.thread, %51
  %58 = phi i64 [ %50, %.thread ], [ %56, %51 ]
  %.05080 = phi ptr [ null, %.thread ], [ %13, %51 ]
  %.177 = phi ptr [ %.1.ph, %.thread ], [ %.051, %51 ]
  %59 = getelementptr inbounds i8, ptr %0, i64 40
  %60 = load i32, ptr %59, align 8
  switch i32 %60, label %61 [
    i32 64, label %64
    i32 73, label %64
  ]

61:                                               ; preds = %57
  tail call void (i64, ptr, ...) @sema_error_at(i64 %58, ptr noundef nonnull @.str.113) #8
  br label %96

.critedge67:                                      ; preds = %51
  %62 = load i32, ptr %17, align 8
  %.not63 = icmp eq i32 %62, 64
  br i1 %.not63, label %64, label %63

63:                                               ; preds = %.critedge67
  tail call void (i64, ptr, ...) @sema_error_at(i64 %56, ptr noundef nonnull @.str.114) #8
  br label %96

64:                                               ; preds = %57, %57, %.critedge67
  %.05078 = phi ptr [ %13, %.critedge67 ], [ %.05080, %57 ], [ %.05080, %57 ]
  %.175 = phi ptr [ %.051, %.critedge67 ], [ %.177, %57 ], [ %.177, %57 ]
  tail call void @advance(ptr noundef nonnull %0) #8
  %.not64 = icmp eq ptr %.05078, null
  br i1 %.not64, label %72, label %65

65:                                               ; preds = %64
  %66 = load ptr, ptr @type_info_arena, align 8
  %67 = ptrtoint ptr %.05078 to i64
  %68 = ptrtoint ptr %66 to i64
  %69 = sub i64 %67, %68
  %70 = sdiv exact i64 %69, 40
  %71 = trunc i64 %70 to i32
  br label %72

72:                                               ; preds = %64, %65
  %73 = phi i32 [ %71, %65 ], [ 0, %64 ]
  %74 = getelementptr inbounds i8, ptr %1, i64 80
  %75 = getelementptr inbounds i8, ptr %1, i64 96
  store i32 %73, ptr %75, align 8
  %76 = getelementptr inbounds i8, ptr %1, i64 89
  %77 = zext i1 %6 to i16
  %78 = load i16, ptr %76, align 1
  %79 = and i16 %78, -2
  %80 = or disjoint i16 %79, %77
  store i16 %80, ptr %76, align 1
  %81 = load ptr, ptr %1, align 8
  %82 = load i8, ptr %81, align 1
  %83 = icmp eq i8 %82, 64
  %84 = select i1 %83, i16 2, i16 0
  %85 = and i16 %80, -3
  %86 = or disjoint i16 %84, %85
  store i16 %86, ptr %76, align 1
  %.not65 = icmp eq ptr %.175, null
  br i1 %.not65, label %94, label %87

87:                                               ; preds = %72
  %88 = load ptr, ptr @type_info_arena, align 8
  %89 = ptrtoint ptr %.175 to i64
  %90 = ptrtoint ptr %88 to i64
  %91 = sub i64 %89, %90
  %92 = sdiv exact i64 %91, 40
  %93 = trunc i64 %92 to i32
  br label %94

94:                                               ; preds = %72, %87
  %95 = phi i32 [ %93, %87 ], [ 0, %72 ]
  store i32 %95, ptr %74, align 8
  br label %96

96:                                               ; preds = %30, %14, %94, %63, %61, %43, %39
  %.0 = phi i1 [ false, %61 ], [ true, %94 ], [ false, %63 ], [ false, %39 ], [ false, %43 ], [ false, %14 ], [ false, %30 ]
  ret i1 %.0
}